; Function Attrs: mustprogress nounwind uwtable
define hidden noundef ptr @_ZN7nmethod13scope_desc_inEPhS0_(ptr noundef nonnull align 8 dereferenceable(214) %0, ptr noundef %1, ptr noundef readnone %2) local_unnamed_addr #0 align 2 {
  %4 = getelementptr inbounds i8, ptr %1, i64 1
  %5 = getelementptr inbounds i8, ptr %0, i64 96
  %6 = load ptr, ptr %5, align 8
  %7 = icmp eq ptr %6, null
  br i1 %7, label %_ZN7nmethod12pc_desc_nearEPh.exit.thread, label %8

8:                                                ; preds = %3
  %9 = getelementptr inbounds i8, ptr %0, i64 36
  %10 = load i32, ptr %9, align 4
  %11 = sext i32 %10 to i64
  %12 = getelementptr inbounds i8, ptr %0, i64 %11
  %13 = getelementptr inbounds i8, ptr %0, i64 88
  %14 = load ptr, ptr %13, align 8
  %15 = getelementptr inbounds i8, ptr %0, i64 188
  %16 = load i32, ptr %15, align 4
  %17 = getelementptr inbounds i8, ptr %0, i64 192
  %18 = load i32, ptr %17, align 8
  %19 = load volatile ptr, ptr %6, align 8
  %20 = load i32, ptr %19, align 4
  %21 = sext i32 %20 to i64
  %22 = ptrtoint ptr %4 to i64
  %23 = ptrtoint ptr %12 to i64
  %24 = sub i64 %22, %23
  %25 = icmp eq i64 %24, %21
  br i1 %25, label %_ZN7nmethod12pc_desc_nearEPh.exit.thread11, label %_ZN7nmethod12pc_desc_nearEPh.exit

_ZN7nmethod12pc_desc_nearEPh.exit:                ; preds = %8
  %26 = sext i32 %18 to i64
  %27 = getelementptr inbounds i8, ptr %14, i64 %26
  %28 = sext i32 %16 to i64
  %29 = getelementptr inbounds i8, ptr %14, i64 %28
  %30 = tail call noundef ptr @_ZN15PcDescContainer21find_pc_desc_internalEPhbS0_P6PcDescS2_(ptr noundef nonnull align 8 dereferenceable(32) %6, ptr noundef nonnull %4, i1 noundef zeroext true, ptr noundef nonnull %12, ptr noundef %29, ptr noundef %27)
  %.not = icmp eq ptr %30, null
  br i1 %.not, label %_ZN7nmethod12pc_desc_nearEPh.exit.thread, label %_ZN7nmethod12pc_desc_nearEPh.exit.thread11

_ZN7nmethod12pc_desc_nearEPh.exit.thread11:       ; preds = %8, %_ZN7nmethod12pc_desc_nearEPh.exit
  %.0.i.i14 = phi ptr [ %30, %_ZN7nmethod12pc_desc_nearEPh.exit ], [ %19, %8 ]
  %31 = tail call noundef ptr @_ZNK6PcDesc7real_pcEPK7nmethod(ptr noundef nonnull align 4 dereferenceable(16) %.0.i.i14, ptr noundef nonnull %0) #23
  %.not8 = icmp ugt ptr %31, %2
  br i1 %.not8, label %_ZN7nmethod12pc_desc_nearEPh.exit.thread, label %32

32:                                               ; preds = %_ZN7nmethod12pc_desc_nearEPh.exit.thread11
  %33 = tail call noundef ptr @_Z23resource_allocate_bytesmN17AllocFailStrategy13AllocFailEnumE(i64 noundef 56, i32 noundef 0) #23
  tail call void @_ZN9ScopeDescC1EPK7nmethodP6PcDescb(ptr noundef nonnull align 8 dereferenceable(56) %33, ptr noundef nonnull %0, ptr noundef nonnull %.0.i.i14, i1 noundef zeroext false) #23
  br label %_ZN7nmethod12pc_desc_nearEPh.exit.thread

_ZN7nmethod12pc_desc_nearEPh.exit.thread:         ; preds = %3, %_ZN7nmethod12pc_desc_nearEPh.exit, %_ZN7nmethod12pc_desc_nearEPh.exit.thread11, %32
  %.0 = phi ptr [ %33, %32 ], [ null, %_ZN7nmethod12pc_desc_nearEPh.exit.thread11 ], [ null, %_ZN7nmethod12pc_desc_nearEPh.exit ], [ null, %3 ]
  ret ptr %.0
}